target datalayout = "e-m:e-p270:32:32-p271:32:32-p272:64:64-i64:64-i128:128-f80:128-n8:16:32:64-S128"
target triple = "x86_64-pc-linux-gnu"

%struct.pxr_nc_1_0_ColorSpace = type { %struct.pxr_nc_1_0_ColorSpaceDescriptor, float, float, %struct.pxr_nc_1_0_M33f }
%struct.pxr_nc_1_0_ColorSpaceDescriptor = type { ptr, %struct.pxr_nc_1_0_Chromaticity, %struct.pxr_nc_1_0_Chromaticity, %struct.pxr_nc_1_0_Chromaticity, %struct.pxr_nc_1_0_Chromaticity, float, float }
%struct.pxr_nc_1_0_Chromaticity = type { float, float }
%struct.pxr_nc_1_0_M33f = type { [9 x float] }

; Function Attrs: nounwind uwtable
define void @pxr_nc_1_0_GetK0Phi(ptr noundef %0, ptr noundef %1, ptr noundef %2) #0 {
  %4 = alloca ptr, align 8
  %5 = alloca ptr, align 8
  %6 = alloca ptr, align 8
  store ptr %0, ptr %4, align 8
  store ptr %1, ptr %5, align 8
  store ptr %2, ptr %6, align 8
  %7 = load ptr, ptr %4, align 8
  %8 = icmp ne ptr %7, null
  br i1 %8, label %9, label %24

9:                                                ; preds = %3
  %10 = load ptr, ptr %5, align 8
  %11 = icmp ne ptr %10, null
  br i1 %11, label %12, label %24

12:                                               ; preds = %9
  %13 = load ptr, ptr %6, align 8
  %14 = icmp ne ptr %13, null
  br i1 %14, label %15, label %24

15:                                               ; preds = %12
  %16 = load ptr, ptr %4, align 8
  %17 = getelementptr inbounds nuw %struct.pxr_nc_1_0_ColorSpace, ptr %16, i32 0, i32 1
  %18 = load float, ptr %17, align 8
  %19 = load ptr, ptr %5, align 8
  store float %18, ptr %19, align 4
  %20 = load ptr, ptr %4, align 8
  %21 = getelementptr inbounds nuw %struct.pxr_nc_1_0_ColorSpace, ptr %20, i32 0, i32 2
  %22 = load float, ptr %21, align 4
  %23 = load ptr, ptr %6, align 8
  store float %22, ptr %23, align 4
  br label %24

24:                                               ; preds = %15, %12, %9, %3
  ret void
}