; Function Attrs: mustprogress nofree norecurse nosync nounwind willreturn memory(argmem: readwrite) uwtable
define void @pxr_nc_1_0_GetK0Phi(ptr noundef readonly %0, ptr noundef writeonly %1, ptr noundef writeonly %2) local_unnamed_addr #16 {
  %4 = icmp ne ptr %0, null
  %5 = icmp ne ptr %1, null
  %or.cond = and i1 %4, %5
  %6 = icmp ne ptr %2, null
  %or.cond3 = and i1 %or.cond, %6
  br i1 %or.cond3, label %7, label %12

7:                                                ; preds = %3
  %8 = getelementptr inbounds nuw i8, ptr %0, i64 48
  %9 = load float, ptr %8, align 8
  store float %9, ptr %1, align 4
  %10 = getelementptr inbounds nuw i8, ptr %0, i64 52
  %11 = load float, ptr %10, align 4
  store float %11, ptr %2, align 4
  br label %12

12:                                               ; preds = %7, %3
  ret void
}